libvoro++.so.1 libvoro++1 #MINVER#
 _ZN4voro10wall_plane12point_insideEddd@Base 0.4.6
 _ZN4voro10wall_plane13cut_cell_baseINS_11voronoicellEEEbRT_ddd@Base 0.4.6
 _ZN4voro10wall_plane13cut_cell_baseINS_20voronoicell_neighborEEEbRT_ddd@Base 0.4.6
 _ZN4voro10wall_plane8cut_cellERNS_11voronoicellEddd@Base 0.4.6
 _ZN4voro10wall_plane8cut_cellERNS_20voronoicell_neighborEddd@Base 0.4.6
 _ZN4voro10wall_planeD0Ev@Base 0.4.6
 _ZN4voro10wall_planeD1Ev@Base 0.4.6
 _ZN4voro10wall_planeD2Ev@Base 0.4.6
 _ZN4voro11wall_sphere12point_insideEddd@Base 0.4.6
 _ZN4voro11wall_sphere13cut_cell_baseINS_11voronoicellEEEbRT_ddd@Base 0.4.6
 _ZN4voro11wall_sphere13cut_cell_baseINS_20voronoicell_neighborEEEbRT_ddd@Base 0.4.6
 _ZN4voro11wall_sphere8cut_cellERNS_11voronoicellEddd@Base 0.4.6
 _ZN4voro11wall_sphere8cut_cellERNS_20voronoicell_neighborEddd@Base 0.4.6
 _ZN4voro11wall_sphereD0Ev@Base 0.4.6
 _ZN4voro11wall_sphereD1Ev@Base 0.4.6
 _ZN4voro11wall_sphereD2Ev@Base 0.4.6
 _ZN4voro12voro_computeINS_14container_polyEE11add_to_maskEiiiRPi@Base 0.4.6
 _ZN4voro12voro_computeINS_14container_polyEE11corner_testINS_11voronoicellEEEbRT_dddddd@Base 0.4.6
 _ZN4voro12voro_computeINS_14container_polyEE11corner_testINS_20voronoicell_neighborEEEbRT_dddddd@Base 0.4.6
 _ZN4voro12voro_computeINS_14container_polyEE11edge_x_testINS_11voronoicellEEEbRT_dddddd@Base 0.4.6
 _ZN4voro12voro_computeINS_14container_polyEE11edge_x_testINS_20voronoicell_neighborEEEbRT_dddddd@Base 0.4.6
 _ZN4voro12voro_computeINS_14container_polyEE11edge_y_testINS_11voronoicellEEEbRT_dddddd@Base 0.4.6
 _ZN4voro12voro_computeINS_14container_polyEE11edge_y_testINS_20voronoicell_neighborEEEbRT_dddddd@Base 0.4.6
 _ZN4voro12voro_computeINS_14container_polyEE11edge_z_testINS_11voronoicellEEEbRT_dddddd@Base 0.4.6
 _ZN4voro12voro_computeINS_14container_polyEE11edge_z_testINS_20voronoicell_neighborEEEbRT_dddddd@Base 0.4.6
 _ZN4voro12voro_computeINS_14container_polyEE12compute_cellINS_11voronoicellEEEbRT_iiiii@Base 0.4.6
 _ZN4voro12voro_computeINS_14container_polyEE12compute_cellINS_20voronoicell_neighborEEEbRT_iiiii@Base 0.4.6
 _ZN4voro12voro_computeINS_14container_polyEE15add_list_memoryERPiS4_@Base 0.4.6
 _ZN4voro12voro_computeINS_14container_polyEE17find_voronoi_cellEdddiiiiRNS_15particle_recordERd@Base 0.4.6
 _ZN4voro12voro_computeINS_14container_polyEE18compute_min_radiusEiiidddd@Base 0.4.6
 _ZN4voro12voro_computeINS_14container_polyEE18scan_bits_mask_addEjPjiiiRPi@Base 0.4.6
 _ZN4voro12voro_computeINS_14container_polyEE22compute_min_max_radiusEiiiddddddRdd@Base 0.4.6
 _ZN4voro12voro_computeINS_14container_polyEEC1ERS1_iii@Base 0.4.6
 _ZN4voro12voro_computeINS_14container_polyEEC2ERS1_iii@Base 0.4.6
 _ZN4voro12voro_computeINS_18container_periodicEE11add_to_maskEiiiRPi@Base 0.4.6
 _ZN4voro12voro_computeINS_18container_periodicEE11corner_testINS_11voronoicellEEEbRT_dddddd@Base 0.4.6
 _ZN4voro12voro_computeINS_18container_periodicEE11corner_testINS_20voronoicell_neighborEEEbRT_dddddd@Base 0.4.6
 _ZN4voro12voro_computeINS_18container_periodicEE11edge_x_testINS_11voronoicellEEEbRT_dddddd@Base 0.4.6
 _ZN4voro12voro_computeINS_18container_periodicEE11edge_x_testINS_20voronoicell_neighborEEEbRT_dddddd@Base 0.4.6
 _ZN4voro12voro_computeINS_18container_periodicEE11edge_y_testINS_11voronoicellEEEbRT_dddddd@Base 0.4.6
 _ZN4voro12voro_computeINS_18container_periodicEE11edge_y_testINS_20voronoicell_neighborEEEbRT_dddddd@Base 0.4.6
 _ZN4voro12voro_computeINS_18container_periodicEE11edge_z_testINS_11voronoicellEEEbRT_dddddd@Base 0.4.6
 _ZN4voro12voro_computeINS_18container_periodicEE11edge_z_testINS_20voronoicell_neighborEEEbRT_dddddd@Base 0.4.6
 _ZN4voro12voro_computeINS_18container_periodicEE11face_x_testINS_11voronoicellEEEbRT_ddddd@Base 0.4.6
 _ZN4voro12voro_computeINS_18container_periodicEE11face_y_testINS_11voronoicellEEEbRT_ddddd@Base 0.4.6
 _ZN4voro12voro_computeINS_18container_periodicEE11face_z_testINS_11voronoicellEEEbRT_ddddd@Base 0.4.6
 _ZN4voro12voro_computeINS_18container_periodicEE12compute_cellINS_11voronoicellEEEbRT_iiiii@Base 0.4.6
 _ZN4voro12voro_computeINS_18container_periodicEE12compute_cellINS_20voronoicell_neighborEEEbRT_iiiii@Base 0.4.6
 _ZN4voro12voro_computeINS_18container_periodicEE15add_list_memoryERPiS4_@Base 0.4.6
 _ZN4voro12voro_computeINS_18container_periodicEE17find_voronoi_cellEdddiiiiRNS_15particle_recordERd@Base 0.4.6
 _ZN4voro12voro_computeINS_18container_periodicEE18scan_bits_mask_addEjPjiiiRPi@Base 0.4.6
 _ZN4voro12voro_computeINS_18container_periodicEE22compute_min_max_radiusEiiiddddddRdd@Base 0.4.6
 _ZN4voro12voro_computeINS_18container_periodicEEC1ERS1_iii@Base 0.4.6
 _ZN4voro12voro_computeINS_18container_periodicEEC2ERS1_iii@Base 0.4.6
 _ZN4voro12voro_computeINS_23container_periodic_polyEE11add_to_maskEiiiRPi@Base 0.4.6
 _ZN4voro12voro_computeINS_23container_periodic_polyEE11corner_testINS_11voronoicellEEEbRT_dddddd@Base 0.4.6
 _ZN4voro12voro_computeINS_23container_periodic_polyEE11corner_testINS_20voronoicell_neighborEEEbRT_dddddd@Base 0.4.6
 _ZN4voro12voro_computeINS_23container_periodic_polyEE11edge_x_testINS_11voronoicellEEEbRT_dddddd@Base 0.4.6
 _ZN4voro12voro_computeINS_23container_periodic_polyEE11edge_x_testINS_20voronoicell_neighborEEEbRT_dddddd@Base 0.4.6
 _ZN4voro12voro_computeINS_23container_periodic_polyEE11edge_y_testINS_11voronoicellEEEbRT_dddddd@Base 0.4.6
 _ZN4voro12voro_computeINS_23container_periodic_polyEE11edge_y_testINS_20voronoicell_neighborEEEbRT_dddddd@Base 0.4.6
 _ZN4voro12voro_computeINS_23container_periodic_polyEE11edge_z_testINS_11voronoicellEEEbRT_dddddd@Base 0.4.6
 _ZN4voro12voro_computeINS_23container_periodic_polyEE11edge_z_testINS_20voronoicell_neighborEEEbRT_dddddd@Base 0.4.6
 _ZN4voro12voro_computeINS_23container_periodic_polyEE12compute_cellINS_11voronoicellEEEbRT_iiiii@Base 0.4.6
 _ZN4voro12voro_computeINS_23container_periodic_polyEE12compute_cellINS_20voronoicell_neighborEEEbRT_iiiii@Base 0.4.6
 _ZN4voro12voro_computeINS_23container_periodic_polyEE15add_list_memoryERPiS4_@Base 0.4.6
 _ZN4voro12voro_computeINS_23container_periodic_polyEE17find_voronoi_cellEdddiiiiRNS_15particle_recordERd@Base 0.4.6
 _ZN4voro12voro_computeINS_23container_periodic_polyEE18compute_min_radiusEiiidddd@Base 0.4.6
 _ZN4voro12voro_computeINS_23container_periodic_polyEE18scan_bits_mask_addEjPjiiiRPi@Base 0.4.6
 _ZN4voro12voro_computeINS_23container_periodic_polyEE22compute_min_max_radiusEiiiddddddRdd@Base 0.4.6
 _ZN4voro12voro_computeINS_23container_periodic_polyEEC1ERS1_iii@Base 0.4.6
 _ZN4voro12voro_computeINS_23container_periodic_polyEEC2ERS1_iii@Base 0.4.6
 _ZN4voro12voro_computeINS_9containerEE11add_to_maskEiiiRPi@Base 0.4.6
 _ZN4voro12voro_computeINS_9containerEE12compute_cellINS_11voronoicellEEEbRT_iiiii@Base 0.4.6
 _ZN4voro12voro_computeINS_9containerEE12compute_cellINS_20voronoicell_neighborEEEbRT_iiiii@Base 0.4.6
 _ZN4voro12voro_computeINS_9containerEE15add_list_memoryERPiS4_@Base 0.4.6
 _ZN4voro12voro_computeINS_9containerEE17find_voronoi_cellEdddiiiiRNS_15particle_recordERd@Base 0.4.6
 _ZN4voro12voro_computeINS_9containerEE18scan_bits_mask_addEjPjiiiRPi@Base 0.4.6
 _ZN4voro12voro_computeINS_9containerEE22compute_min_max_radiusEiiiddddddRdd@Base 0.4.6
 _ZN4voro12voro_computeINS_9containerEEC1ERS1_iii@Base 0.4.6
 _ZN4voro12voro_computeINS_9containerEEC2ERS1_iii@Base 0.4.6
 _ZN4voro13c_loop_subset10next_blockEv@Base 0.4.6
 _ZN4voro13c_loop_subset12setup_commonEv@Base 0.4.6
 _ZN4voro13c_loop_subset12setup_intboxEiiiiii@Base 0.4.6
 _ZN4voro13c_loop_subset12setup_sphereEddddb@Base 0.4.6
 _ZN4voro13c_loop_subset13out_of_boundsEv@Base 0.4.6
 _ZN4voro13c_loop_subset5startEv@Base 0.4.6
 _ZN4voro13c_loop_subset9setup_boxEddddddb@Base 0.4.6
 _ZN4voro13pre_container3putEiddd@Base 0.4.6
 _ZN4voro13pre_container5setupERNS_14particle_orderERNS_9containerE@Base 0.4.6
 _ZN4voro13pre_container5setupERNS_9containerE@Base 0.4.6
 _ZN4voro13pre_container6importEP8_IO_FILE@Base 0.4.6
 _ZN4voro13wall_cylinder12point_insideEddd@Base 0.4.6
 _ZN4voro13wall_cylinder13cut_cell_baseINS_11voronoicellEEEbRT_ddd@Base 0.4.6
 _ZN4voro13wall_cylinder13cut_cell_baseINS_20voronoicell_neighborEEEbRT_ddd@Base 0.4.6
 _ZN4voro13wall_cylinder8cut_cellERNS_11voronoicellEddd@Base 0.4.6
 _ZN4voro13wall_cylinder8cut_cellERNS_20voronoicell_neighborEddd@Base 0.4.6
 _ZN4voro13wall_cylinderD0Ev@Base 0.4.6
 _ZN4voro13wall_cylinderD1Ev@Base 0.4.6
 _ZN4voro13wall_cylinderD2Ev@Base 0.4.6
 _ZN4voro14container_base12point_insideEddd@Base 0.4.6
 _ZN4voro14container_base12region_countEv@Base 0.4.6
 _ZN4voro14container_base12region_indexEiiiiiiRdS1_S1_Ri@Base 0.4.6
 _ZN4voro14container_base15draw_domain_povEP8_IO_FILE@Base 0.4.6
 _ZN4voro14container_base16put_locate_blockERiRdS2_S2_@Base 0.4.6
 _ZN4voro14container_base19add_particle_memoryEi@Base 0.4.6
 _ZN4voro14container_base19draw_domain_gnuplotEP8_IO_FILE@Base 0.4.6
 _ZN4voro14container_baseC1Eddddddiiibbbii@Base 0.4.6
 _ZN4voro14container_baseC2Eddddddiiibbbii@Base 0.4.6
 _ZN4voro14container_baseD1Ev@Base 0.4.6
 _ZN4voro14container_baseD2Ev@Base 0.4.6
 _ZN4voro14container_poly12print_customEPKcP8_IO_FILE@Base 0.4.6
 _ZN4voro14container_poly12print_customEPKcS2_@Base 0.4.6
 _ZN4voro14container_poly16sum_cell_volumesEv@Base 0.4.6
 _ZN4voro14container_poly17compute_all_cellsEv@Base 0.4.6
 _ZN4voro14container_poly17find_voronoi_cellEdddRdS1_S1_Ri@Base 0.4.6
 _ZN4voro14container_poly3putERNS_14particle_orderEidddd@Base 0.4.6
 _ZN4voro14container_poly3putEidddd@Base 0.4.6
 _ZN4voro14container_poly5clearEv@Base 0.4.6
 _ZN4voro14container_poly6importEP8_IO_FILE@Base 0.4.6
 _ZN4voro14container_poly6importERNS_14particle_orderEP8_IO_FILE@Base 0.4.6
 _ZN4voro14container_polyC1Eddddddiiibbbi@Base 0.4.6
 _ZN4voro14container_polyC2Eddddddiiibbbi@Base 0.4.6
 _ZN4voro14particle_order19add_ordering_memoryEv@Base 0.4.6
 _ZN4voro16voro_fatal_errorEPKci@Base 0.4.6
 _ZN4voro16voronoicell_base10add_memoryINS_11voronoicellEEEvRT_iPi@Base 0.4.6
 _ZN4voro16voronoicell_base10add_memoryINS_20voronoicell_neighborEEEvRT_iPi@Base 0.4.6
 _ZN4voro16voronoicell_base10face_areasERSt6vectorIdSaIdEE@Base 0.4.6
 _ZN4voro16voronoicell_base11face_ordersERSt6vectorIiSaIiEE@Base 0.4.6
 _ZN4voro16voronoicell_base11print_edgesEv@Base 0.4.6
 _ZN4voro16voronoicell_base12draw_gnuplotEdddP8_IO_FILE@Base 0.4.6
 _ZN4voro16voronoicell_base12surface_areaEv@Base 0.4.6
 _ZN4voro16voronoicell_base13add_memory_dsERPi@Base 0.4.6
 _ZN4voro16voronoicell_base13draw_pov_meshEdddP8_IO_FILE@Base 0.4.6
 _ZN4voro16voronoicell_base13face_verticesERSt6vectorIiSaIiEE@Base 0.4.6
 _ZN4voro16voronoicell_base13output_customEPKciddddP8_IO_FILE@Base 0.4.6
 _ZN4voro16voronoicell_base13vertex_ordersERSt6vectorIiSaIiEE@Base 0.4.6
 _ZN4voro16voronoicell_base14add_memory_ds2ERPi@Base 0.4.6
 _ZN4voro16voronoicell_base14check_marginalEiRd@Base 0.4.6
 _ZN4voro16voronoicell_base15check_relationsEv@Base 0.4.6
 _ZN4voro16voronoicell_base15collapse_order1INS_20voronoicell_neighborEEEbRT_@Base 0.4.6
 _ZN4voro16voronoicell_base15collapse_order2INS_11voronoicellEEEbRT_@Base 0.4.6
 _ZN4voro16voronoicell_base15collapse_order2INS_20voronoicell_neighborEEEbRT_@Base 0.4.6
 _ZN4voro16voronoicell_base15face_freq_tableERSt6vectorIiSaIiEE@Base 0.4.6
 _ZN4voro16voronoicell_base15face_perimetersERSt6vectorIdSaIdEE@Base 0.4.6
 _ZN4voro16voronoicell_base15number_of_edgesEv@Base 0.4.6
 _ZN4voro16voronoicell_base15number_of_facesEv@Base 0.4.6
 _ZN4voro16voronoicell_base15output_verticesEP8_IO_FILE@Base 0.4.6
 _ZN4voro16voronoicell_base15output_verticesEdddP8_IO_FILE@Base 0.4.6
 _ZN4voro16voronoicell_base16check_duplicatesEv@Base 0.4.6
 _ZN4voro16voronoicell_base16output_neighborsEP8_IO_FILE@Base 0.4.6
 _ZN4voro16voronoicell_base16plane_intersectsEdddd@Base 0.4.6
 _ZN4voro16voronoicell_base17add_memory_vorderINS_11voronoicellEEEvRT_@Base 0.4.6
 _ZN4voro16voronoicell_base17add_memory_vorderINS_20voronoicell_neighborEEEvRT_@Base 0.4.6
#MISSING: 0.4.6-5ppa1~yakkety1# _ZN4voro16voronoicell_base17delete_connectionINS_11voronoicellEEEbRT_iib@Base 0.4.6
 _ZN4voro16voronoicell_base17delete_connectionINS_20voronoicell_neighborEEEbRT_iib@Base 0.4.6
 _ZN4voro16voronoicell_base18max_radius_squaredEv@Base 0.4.6
 _ZN4voro16voronoicell_base19add_memory_verticesINS_11voronoicellEEEvRT_@Base 0.4.6
 _ZN4voro16voronoicell_base19add_memory_verticesINS_20voronoicell_neighborEEEvRT_@Base 0.4.6
 _ZN4voro16voronoicell_base19construct_relationsEv@Base 0.4.6
 _ZN4voro16voronoicell_base19total_edge_distanceEv@Base 0.4.6
 _ZN4voro16voronoicell_base20init_octahedron_baseEd@Base 0.4.6
 _ZN4voro16voronoicell_base20output_vertex_ordersEP8_IO_FILE@Base 0.4.6
 _ZN4voro16voronoicell_base21check_memory_for_copyINS_11voronoicellEEEvRT_PS0_@Base 0.4.6
 _ZN4voro16voronoicell_base21check_memory_for_copyINS_20voronoicell_neighborEEEvRT_PS0_@Base 0.4.6
 _ZN4voro16voronoicell_base21init_tetrahedron_baseEdddddddddddd@Base 0.4.6
 _ZN4voro16voronoicell_base21print_edges_neighborsEi@Base 0.4.6
 _ZN4voro16voronoicell_base22plane_intersects_guessEdddd@Base 0.4.6
 _ZN4voro16voronoicell_base4copyEPS0_@Base 0.4.6
 _ZN4voro16voronoicell_base6m_testEiRd@Base 0.4.6
 _ZN4voro16voronoicell_base6nplaneINS_11voronoicellEEEbRT_ddddi@Base 0.4.6
 _ZN4voro16voronoicell_base6nplaneINS_20voronoicell_neighborEEEbRT_ddddi@Base 0.4.6
 _ZN4voro16voronoicell_base6volumeEv@Base 0.4.6
 _ZN4voro16voronoicell_base7normalsERSt6vectorIdSaIdEE@Base 0.4.6
 _ZN4voro16voronoicell_base8centroidERdS1_S1_@Base 0.4.6
 _ZN4voro16voronoicell_base8draw_povEdddP8_IO_FILE@Base 0.4.6
 _ZN4voro16voronoicell_base8verticesERSt6vectorIdSaIdEE@Base 0.4.6
 _ZN4voro16voronoicell_base8verticesEdddRSt6vectorIdSaIdEE@Base 0.4.6
 _ZN4voro16voronoicell_base9init_baseEdddddd@Base 0.4.6
 _ZN4voro16voronoicell_base9neighborsERSt6vectorIiSaIiEE@Base 0.4.6
 _ZN4voro16voronoicell_base9translateEddd@Base 0.4.6
 _ZN4voro16voronoicell_baseC1Ev@Base 0.4.6
 _ZN4voro16voronoicell_baseC2Ev@Base 0.4.6
 _ZN4voro16voronoicell_baseD1Ev@Base 0.4.6
 _ZN4voro16voronoicell_baseD2Ev@Base 0.4.6
 _ZN4voro17voro_print_vectorERSt6vectorIdSaIdEEP8_IO_FILE@Base 0.4.6
 _ZN4voro17voro_print_vectorERSt6vectorIiSaIiEEP8_IO_FILE@Base 0.4.6
 _ZN4voro18container_periodic12print_customEPKcP8_IO_FILE@Base 0.4.6
 _ZN4voro18container_periodic12print_customEPKcS2_@Base 0.4.6
 _ZN4voro18container_periodic16sum_cell_volumesEv@Base 0.4.6
 _ZN4voro18container_periodic17compute_all_cellsEv@Base 0.4.6
 _ZN4voro18container_periodic17find_voronoi_cellEdddRdS1_S1_Ri@Base 0.4.6
 _ZN4voro18container_periodic3putERNS_14particle_orderEiddd@Base 0.4.6
 _ZN4voro18container_periodic3putEiddd@Base 0.4.6
 _ZN4voro18container_periodic3putEidddRiS1_S1_@Base 0.4.6
 _ZN4voro18container_periodic5clearEv@Base 0.4.6
 _ZN4voro18container_periodic6importEP8_IO_FILE@Base 0.4.6
 _ZN4voro18container_periodic6importERNS_14particle_orderEP8_IO_FILE@Base 0.4.6
 _ZN4voro18container_periodicC1Eddddddiiii@Base 0.4.6
 _ZN4voro18container_periodicC2Eddddddiiii@Base 0.4.6
 _ZN4voro18pre_container_base13guess_optimalERiS1_S1_@Base 0.4.6
 _ZN4voro18pre_container_base18extend_chunk_indexEv@Base 0.4.6
 _ZN4voro18pre_container_base9new_chunkEv@Base 0.4.6
 _ZN4voro18pre_container_baseC1Eddddddbbbi@Base 0.4.6
 _ZN4voro18pre_container_baseC2Eddddddbbbi@Base 0.4.6
 _ZN4voro18pre_container_baseD1Ev@Base 0.4.6
 _ZN4voro18pre_container_baseD2Ev@Base 0.4.6
 _ZN4voro18pre_container_poly3putEidddd@Base 0.4.6
 _ZN4voro18pre_container_poly5setupERNS_14container_polyE@Base 0.4.6
 _ZN4voro18pre_container_poly5setupERNS_14particle_orderERNS_14container_polyE@Base 0.4.6
 _ZN4voro18pre_container_poly6importEP8_IO_FILE@Base 0.4.6
 _ZN4voro20voronoicell_neighbor12check_facetsEv@Base 0.4.6
 _ZN4voro20voronoicell_neighbor15init_octahedronEd@Base 0.4.6
 _ZN4voro20voronoicell_neighbor16init_tetrahedronEdddddddddddd@Base 0.4.6
 _ZN4voro20voronoicell_neighbor16output_neighborsEP8_IO_FILE@Base 0.4.6
 _ZN4voro20voronoicell_neighbor21print_edges_neighborsEi@Base 0.4.6
 _ZN4voro20voronoicell_neighbor4initEdddddd@Base 0.4.6
 _ZN4voro20voronoicell_neighbor9neighborsERSt6vectorIiSaIiEE@Base 0.4.6
 _ZN4voro20voronoicell_neighborC1Ev@Base 0.4.6
 _ZN4voro20voronoicell_neighborC2Ev@Base 0.4.6
 _ZN4voro20voronoicell_neighborD1Ev@Base 0.4.6
 _ZN4voro20voronoicell_neighborD2Ev@Base 0.4.6
 _ZN4voro20voronoicell_neighboraSERNS_11voronoicellE@Base 0.4.6
 _ZN4voro20voronoicell_neighboraSERS0_@Base 0.4.6
 _ZN4voro23container_periodic_base12region_countEv@Base 0.4.6
 _ZN4voro23container_periodic_base12region_indexEiiiiiiRdS1_S1_Ri@Base 0.4.6
 _ZN4voro23container_periodic_base16put_locate_blockERiRdS2_S2_@Base 0.4.6
 _ZN4voro23container_periodic_base16put_locate_blockERiRdS2_S2_S1_S1_S1_@Base 0.4.6
 _ZN4voro23container_periodic_base17create_all_imagesEv@Base 0.4.6
 _ZN4voro23container_periodic_base17create_side_imageEiii@Base 0.4.6
 _ZN4voro23container_periodic_base19add_particle_memoryEi@Base 0.4.6
 _ZN4voro23container_periodic_base21create_vertical_imageEiii@Base 0.4.6
 _ZN4voro23container_periodic_base23check_compartmentalizedEv@Base 0.4.6
 _ZN4voro23container_periodic_base9put_imageEiiiddd@Base 0.4.6
 _ZN4voro23container_periodic_baseC1Eddddddiiiii@Base 0.4.6
 _ZN4voro23container_periodic_baseC2Eddddddiiiii@Base 0.4.6
 _ZN4voro23container_periodic_baseD1Ev@Base 0.4.6
 _ZN4voro23container_periodic_baseD2Ev@Base 0.4.6
 _ZN4voro23container_periodic_poly12print_customEPKcP8_IO_FILE@Base 0.4.6
 _ZN4voro23container_periodic_poly12print_customEPKcS2_@Base 0.4.6
 _ZN4voro23container_periodic_poly16sum_cell_volumesEv@Base 0.4.6
 _ZN4voro23container_periodic_poly17compute_all_cellsEv@Base 0.4.6
 _ZN4voro23container_periodic_poly17find_voronoi_cellEdddRdS1_S1_Ri@Base 0.4.6
 _ZN4voro23container_periodic_poly3putERNS_14particle_orderEidddd@Base 0.4.6
 _ZN4voro23container_periodic_poly3putEidddd@Base 0.4.6
 _ZN4voro23container_periodic_poly3putEiddddRiS1_S1_@Base 0.4.6
 _ZN4voro23container_periodic_poly5clearEv@Base 0.4.6
 _ZN4voro23container_periodic_poly6importEP8_IO_FILE@Base 0.4.6
 _ZN4voro23container_periodic_poly6importERNS_14particle_orderEP8_IO_FILE@Base 0.4.6
 _ZN4voro23container_periodic_polyC1Eddddddiiii@Base 0.4.6
 _ZN4voro23container_periodic_polyC2Eddddddiiii@Base 0.4.6
 _ZN4voro24voro_print_face_verticesERSt6vectorIiSaIiEEP8_IO_FILE@Base 0.4.6
 _ZN4voro8unitcell15draw_domain_povEP8_IO_FILE@Base 0.4.6
 _ZN4voro8unitcell16intersects_imageEdddRd@Base 0.4.6
 _ZN4voro8unitcell19draw_domain_gnuplotEP8_IO_FILE@Base 0.4.6
 _ZN4voro8unitcell19unit_voro_intersectEi@Base 0.4.6
 _ZN4voro8unitcell6imagesERSt6vectorIiSaIiEERS1_IdSaIdEE@Base 0.4.6
 _ZN4voro8unitcellC1Edddddd@Base 0.4.6
 _ZN4voro8unitcellC2Edddddd@Base 0.4.6
 _ZN4voro9container12print_customEPKcP8_IO_FILE@Base 0.4.6
 _ZN4voro9container12print_customEPKcS2_@Base 0.4.6
 _ZN4voro9container16sum_cell_volumesEv@Base 0.4.6
 _ZN4voro9container17compute_all_cellsEv@Base 0.4.6
 _ZN4voro9container17find_voronoi_cellEdddRdS1_S1_Ri@Base 0.4.6
 _ZN4voro9container3putERNS_14particle_orderEiddd@Base 0.4.6
 _ZN4voro9container3putEiddd@Base 0.4.6
 _ZN4voro9container5clearEv@Base 0.4.6
 _ZN4voro9container6importEP8_IO_FILE@Base 0.4.6
 _ZN4voro9container6importERNS_14particle_orderEP8_IO_FILE@Base 0.4.6
 _ZN4voro9containerC1Eddddddiiibbbi@Base 0.4.6
 _ZN4voro9containerC2Eddddddiiibbbi@Base 0.4.6
 _ZN4voro9voro_base15compute_minimumERdS1_S1_S1_S1_S1_S1_iii@Base 0.4.6
 _ZN4voro9voro_base17contains_neighborEPKc@Base 0.4.6
 _ZN4voro9voro_base2wlE@Base 0.4.6
 _ZN4voro9voro_baseC1Eiiiddd@Base 0.4.6
 _ZN4voro9voro_baseC2Eiiiddd@Base 0.4.6
 _ZN4voro9wall_cone12point_insideEddd@Base 0.4.6
 _ZN4voro9wall_cone13cut_cell_baseINS_11voronoicellEEEbRT_ddd@Base 0.4.6
 _ZN4voro9wall_cone13cut_cell_baseINS_20voronoicell_neighborEEEbRT_ddd@Base 0.4.6
 _ZN4voro9wall_cone8cut_cellERNS_11voronoicellEddd@Base 0.4.6
 _ZN4voro9wall_cone8cut_cellERNS_20voronoicell_neighborEddd@Base 0.4.6
 _ZN4voro9wall_coneD0Ev@Base 0.4.6
 _ZN4voro9wall_coneD1Ev@Base 0.4.6
 _ZN4voro9wall_coneD2Ev@Base 0.4.6
 _ZN4voro9wall_list10deallocateEv@Base 0.4.6
 _ZN4voro9wall_list20increase_wall_memoryEv@Base 0.4.6
 _ZN4voro9wall_list8add_wallERS0_@Base 0.4.6
 _ZN4voro9wall_listC1Ev@Base 0.4.6
 _ZN4voro9wall_listC2Ev@Base 0.4.6
 _ZN4voro9wall_listD1Ev@Base 0.4.6
 _ZN4voro9wall_listD2Ev@Base 0.4.6
 _ZNSt11_Deque_baseIiSaIiEE17_M_initialize_mapEm@Base 0.4.6
 _ZNSt11_Deque_baseIiSaIiEED1Ev@Base 0.4.6
 _ZNSt11_Deque_baseIiSaIiEED2Ev@Base 0.4.6
 _ZNSt5dequeIiSaIiEE16_M_push_back_auxERKi@Base 0.4.6
 _ZNSt6vectorIdSaIdEE13_M_insert_auxEN9__gnu_cxx17__normal_iteratorIPdS1_EERKd@Base 0.4.6
 _ZNSt6vectorIdSaIdEE14_M_fill_insertEN9__gnu_cxx17__normal_iteratorIPdS1_EEmRKd@Base 0.4.6
 _ZNSt6vectorIiSaIiEE13_M_insert_auxEN9__gnu_cxx17__normal_iteratorIPiS1_EERKi@Base 0.4.6
 _ZNSt6vectorIiSaIiEE14_M_fill_insertEN9__gnu_cxx17__normal_iteratorIPiS1_EEmRKi@Base 0.4.6
 _ZTIN4voro10wall_planeE@Base 0.4.6
 _ZTIN4voro11voronoicellE@Base 0.4.6
 _ZTIN4voro11wall_sphereE@Base 0.4.6
 _ZTIN4voro13wall_cylinderE@Base 0.4.6
 _ZTIN4voro16voronoicell_baseE@Base 0.4.6
 _ZTIN4voro20voronoicell_neighborE@Base 0.4.6
 _ZTIN4voro4wallE@Base 0.4.6
 _ZTIN4voro9wall_coneE@Base 0.4.6
 _ZTSN4voro10wall_planeE@Base 0.4.6
 _ZTSN4voro11voronoicellE@Base 0.4.6
 _ZTSN4voro11wall_sphereE@Base 0.4.6
 _ZTSN4voro13wall_cylinderE@Base 0.4.6
 _ZTSN4voro16voronoicell_baseE@Base 0.4.6
 _ZTSN4voro20voronoicell_neighborE@Base 0.4.6
 _ZTSN4voro4wallE@Base 0.4.6
 _ZTSN4voro9wall_coneE@Base 0.4.6
 _ZTVN4voro10wall_planeE@Base 0.4.6
 _ZTVN4voro11voronoicellE@Base 0.4.6
 _ZTVN4voro11wall_sphereE@Base 0.4.6
 _ZTVN4voro13wall_cylinderE@Base 0.4.6
 _ZTVN4voro16voronoicell_baseE@Base 0.4.6
 _ZTVN4voro20voronoicell_neighborE@Base 0.4.6
 _ZTVN4voro9wall_coneE@Base 0.4.6
 _ZZN4voro12voro_computeINS_14container_polyEE12compute_cellINS_11voronoicellEEEbRT_iiiiiE10count_list@Base 0.4.6
 _ZZN4voro12voro_computeINS_14container_polyEE12compute_cellINS_11voronoicellEEEbRT_iiiiiE7count_e@Base 0.4.6
 _ZZN4voro12voro_computeINS_14container_polyEE12compute_cellINS_20voronoicell_neighborEEEbRT_iiiiiE10count_list@Base 0.4.6
 _ZZN4voro12voro_computeINS_14container_polyEE12compute_cellINS_20voronoicell_neighborEEEbRT_iiiiiE7count_e@Base 0.4.6
 _ZZN4voro12voro_computeINS_18container_periodicEE12compute_cellINS_11voronoicellEEEbRT_iiiiiE10count_list@Base 0.4.6
 _ZZN4voro12voro_computeINS_18container_periodicEE12compute_cellINS_11voronoicellEEEbRT_iiiiiE7count_e@Base 0.4.6
 _ZZN4voro12voro_computeINS_18container_periodicEE12compute_cellINS_20voronoicell_neighborEEEbRT_iiiiiE10count_list@Base 0.4.6
 _ZZN4voro12voro_computeINS_18container_periodicEE12compute_cellINS_20voronoicell_neighborEEEbRT_iiiiiE7count_e@Base 0.4.6
 _ZZN4voro12voro_computeINS_23container_periodic_polyEE12compute_cellINS_11voronoicellEEEbRT_iiiiiE10count_list@Base 0.4.6
 _ZZN4voro12voro_computeINS_23container_periodic_polyEE12compute_cellINS_11voronoicellEEEbRT_iiiiiE7count_e@Base 0.4.6
 _ZZN4voro12voro_computeINS_23container_periodic_polyEE12compute_cellINS_20voronoicell_neighborEEEbRT_iiiiiE10count_list@Base 0.4.6
 _ZZN4voro12voro_computeINS_23container_periodic_polyEE12compute_cellINS_20voronoicell_neighborEEEbRT_iiiiiE7count_e@Base 0.4.6
 _ZZN4voro12voro_computeINS_9containerEE12compute_cellINS_11voronoicellEEEbRT_iiiiiE10count_list@Base 0.4.6
 _ZZN4voro12voro_computeINS_9containerEE12compute_cellINS_11voronoicellEEEbRT_iiiiiE7count_e@Base 0.4.6
 _ZZN4voro12voro_computeINS_9containerEE12compute_cellINS_20voronoicell_neighborEEEbRT_iiiiiE10count_list@Base 0.4.6
 _ZZN4voro12voro_computeINS_9containerEE12compute_cellINS_20voronoicell_neighborEEEbRT_iiiiiE7count_e@Base 0.4.6
